(lp0
(lp1
I637
aI222
aa(lp2
I634
aI221
aa(lp3
I632
aI221
aa(lp4
I629
aI221
aa(lp5
I627
aI221
aa(lp6
I624
aI222
aa(lp7
I621
aI222
aa(lp8
I619
aI222
aa(lp9
I617
aI223
aa(lp10
I614
aI223
aa(lp11
I613
aI223
aa(lp12
I612
aI223
aa(lp13
I611
aI223
aa(lp14
I610
aI223
aa(lp15
I609
aI223
aa(lp16
I608
aI223
aa(lp17
I607
aI223
aa(lp18
I606
aI223
aa(lp19
I604
aI223
aa(lp20
I603
aI223
aa(lp21
I602
aI223
aa(lp22
I601
aI223
aa(lp23
I600
aI223
aa(lp24
I599
aI223
aa(lp25
I598
aI223
aa(lp26
I597
aI223
aa(lp27
I596
aI223
aa(lp28
I595
aI223
aa(lp29
I594
aI223
aa(lp30
I593
aI223
aa(lp31
I592
aI223
aa(lp32
I591
aI223
aa(lp33
I590
aI223
aa(lp34
I589
aI223
aa(lp35
I588
aI223
aa(lp36
I587
aI223
aa(lp37
I586
aI223
aa(lp38
I585
aI223
aa(lp39
I584
aI224
aa(lp40
I583
aI224
aa(lp41
I582
aI224
aa(lp42
I581
aI224
aa(lp43
I579
aI224
aa(lp44
I578
aI224
aa(lp45
I577
aI224
aa(lp46
I576
aI224
aa(lp47
I575
aI224
aa(lp48
I574
aI224
aa(lp49
I573
aI224
aa(lp50
I571
aI224
aa(lp51
I569
aI224
aa(lp52
I568
aI224
aa(lp53
I566
aI224
aa(lp54
I564
aI224
aa(lp55
I562
aI224
aa(lp56
I561
aI224
aa(lp57
I559
aI224
aa(lp58
I558
aI223
aa(lp59
I556
aI223
aa(lp60
I554
aI223
aa(lp61
I553
aI223
aa(lp62
I552
aI222
aa(lp63
I550
aI222
aa(lp64
I549
aI222
aa(lp65
I547
aI221
aa(lp66
I546
aI220
aa(lp67
I544
aI220
aa(lp68
I543
aI219
aa(lp69
I542
aI219
aa(lp70
I541
aI219
aa(lp71
I540
aI218
aa(lp72
I539
aI218
aa(lp73
I539
aI217
aa(lp74
I538
aI217
aa(lp75
I537
aI217
aa(lp76
I537
aI216
aa(lp77
I536
aI216
aa(lp78
I535
aI216
aa(lp79
I535
aI215
aa(lp80
I534
aI215
aa(lp81
I534
aI214
aa(lp82
I533
aI214
aa(lp83
I532
aI214
aa(lp84
I532
aI213
aa(lp85
I531
aI213
aa(lp86
I531
aI212
aa(lp87
I530
aI212
aa(lp88
I529
aI212
aa(lp89
I529
aI211
aa(lp90
I528
aI210
aa(lp91
I527
aI210
aa(lp92
I526
aI210
aa(lp93
I525
aI209
aa(lp94
I524
aI209
aa(lp95
I523
aI209
aa(lp96
I523
aI208
aa(lp97
I522
aI208
aa(lp98
I522
aI207
aa(lp99
I521
aI207
aa(lp100
I520
aI206
aa(lp101
I519
aI206
aa(lp102
I518
aI205
aa(lp103
I517
aI205
aa(lp104
I517
aI204
aa(lp105
I516
aI204
aa(lp106
I515
aI203
aa(lp107
I514
aI203
aa(lp108
I514
aI202
aa(lp109
I513
aI202
aa(lp110
I511
aI202
aa(lp111
I510
aI201
aa(lp112
I509
aI201
aa(lp113
I508
aI201
aa(lp114
I507
aI200
aa(lp115
I506
aI200
aa(lp116
I505
aI200
aa(lp117
I504
aI199
aa(lp118
I503
aI199
aa(lp119
I502
aI199
aa(lp120
I501
aI198
aa(lp121
I500
aI198
aa(lp122
I499
aI198
aa(lp123
I498
aI198
aa(lp124
I497
aI198
aa(lp125
I496
aI197
aa(lp126
I495
aI197
aa(lp127
I494
aI197
aa(lp128
I493
aI197
aa(lp129
I492
aI197
aa(lp130
I492
aI196
aa(lp131
I491
aI196
aa(lp132
I490
aI196
aa(lp133
I489
aI196
aa(lp134
I488
aI195
aa(lp135
I487
aI195
aa(lp136
I486
aI195
aa(lp137
I486
aI194
aa(lp138
I485
aI194
aa(lp139
I484
aI194
aa(lp140
I483
aI194
aa(lp141
I482
aI194
aa(lp142
I482
aI193
aa(lp143
I481
aI193
aa(lp144
I480
aI193
aa(lp145
I479
aI193
aa(lp146
I479
aI192
aa(lp147
I478
aI192
aa(lp148
I477
aI192
aa(lp149
I476
aI192
aa(lp150
I475
aI192
aa(lp151
I473
aI191
aa(lp152
I472
aI191
aa(lp153
I471
aI190
aa(lp154
I470
aI190
aa(lp155
I469
aI190
aa(lp156
I468
aI190
aa(lp157
I467
aI190
aa(lp158
I465
aI190
aa(lp159
I464
aI190
aa(lp160
I463
aI190
aa(lp161
I462
aI190
aa(lp162
I461
aI190
aa(lp163
I460
aI190
aa(lp164
I458
aI190
aa(lp165
I456
aI190
aa(lp166
I455
aI190
aa(lp167
I454
aI190
aa(lp168
I453
aI190
aa(lp169
I452
aI190
aa(lp170
I451
aI190
aa(lp171
I450
aI190
aa(lp172
I449
aI190
aa(lp173
I448
aI190
aa(lp174
I447
aI190
aa(lp175
I447
aI191
aa(lp176
I446
aI191
aa(lp177
I445
aI191
aa(lp178
I444
aI191
aa(lp179
I444
aI192
aa(lp180
I443
aI192
aa(lp181
I442
aI193
aa(lp182
I441
aI194
aa(lp183
I440
aI195
aa(lp184
I440
aI196
aa(lp185
I440
aI197
aa(lp186
I441
aI198
aa(lp187
I442
aI199
aa(lp188
I443
aI200
aa(lp189
I444
aI201
aa(lp190
I445
aI202
aa(lp191
I445
aI201
aa(lp192
I445
aI200
aa(lp193
I445
aI199
aa(lp194
I445
aI198
aa(lp195
I445
aI197
aa(lp196
I444
aI197
aa(lp197
I443
aI197
aa(lp198
I443
aI196
aa(lp199
I442
aI196
aa(lp200
I441
aI196
aa(lp201
I440
aI196
aa(lp202
I440
aI195
aa(lp203
I439
aI195
aa(lp204
I439
aI194
aa(lp205
I438
aI194
aa(lp206
I437
aI194
aa(lp207
I436
aI194
aa(lp208
I435
aI193
aa(lp209
I434
aI193
aa(lp210
I433
aI193
aa(lp211
I431
aI192
aa(lp212
I429
aI192
aa(lp213
I428
aI192
aa(lp214
I426
aI191
aa(lp215
I424
aI191
aa(lp216
I422
aI190
aa(lp217
I420
aI190
aa(lp218
I418
aI190
aa(lp219
I416
aI190
aa(lp220
I414
aI190
aa(lp221
I412
aI189
aa(lp222
I410
aI189
aa(lp223
I408
aI189
aa(lp224
I406
aI189
aa(lp225
I403
aI188
aa(lp226
I401
aI188
aa(lp227
I398
aI188
aa(lp228
I395
aI188
aa(lp229
I392
aI188
aa(lp230
I389
aI188
aa(lp231
I386
aI188
aa(lp232
I383
aI188
aa(lp233
I380
aI188
aa(lp234
I378
aI188
aa(lp235
I376
aI188
aa(lp236
I374
aI188
aa(lp237
I372
aI188
aa(lp238
I370
aI188
aa(lp239
I368
aI188
aa(lp240
I365
aI188
aa(lp241
I363
aI189
aa(lp242
I360
aI189
aa(lp243
I357
aI190
aa(lp244
I354
aI190
aa(lp245
I351
aI190
aa(lp246
I348
aI191
aa(lp247
I345
aI191
aa(lp248
I342
aI192
aa(lp249
I339
aI192
aa(lp250
I335
aI193
aa(lp251
I332
aI194
aa(lp252
I329
aI195
aa(lp253
I326
aI196
aa(lp254
I323
aI197
aa(lp255
I320
aI198
aa(lp256
I317
aI198
aa(lp257
I314
aI199
aa(lp258
I312
aI200
aa(lp259
I308
aI201
aa(lp260
I305
aI202
aa(lp261
I302
aI203
aa(lp262
I299
aI204
aa(lp263
I296
aI205
aa(lp264
I291
aI207
aa(lp265
I288
aI208
aa(lp266
I285
aI208
aa(lp267
I283
aI209
aa(lp268
I281
aI210
aa(lp269
I279
aI210
aa(lp270
I277
aI211
aa(lp271
I276
aI211
aa(lp272
I274
aI212
aa(lp273
I273
aI212
aa(lp274
I272
aI213
aa(lp275
I271
aI213
aa(lp276
I270
aI214
aa(lp277
I269
aI215
aa(lp278
I268
aI215
aa(lp279
I267
aI216
aa(lp280
I266
aI217
aa(lp281
I265
aI217
aa(lp282
I265
aI218
aa(lp283
I265
aI219
aa(lp284
I264
aI219
aa(lp285
I263
aI219
aa(lp286
I262
aI219
aa(lp287
I261
aI219
aa(lp288
I260
aI219
aa(lp289
I259
aI219
aa(lp290
I258
aI219
aa(lp291
I257
aI218
aa(lp292
I256
aI218
aa(lp293
I255
aI218
aa(lp294
I254
aI217
aa(lp295
I253
aI217
aa(lp296
I251
aI215
aa(lp297
I250
aI215
aa(lp298
I249
aI214
aa(lp299
I248
aI214
aa(lp300
I247
aI213
aa(lp301
I246
aI213
aa(lp302
I246
aI212
aa(lp303
I245
aI211
aa(lp304
I244
aI210
aa(lp305
I243
aI210
aa(lp306
I243
aI209
aa(lp307
I242
aI209
aa(lp308
I241
aI208
aa(lp309
I240
aI207
aa(lp310
I239
aI206
aa(lp311
I238
aI206
aa(lp312
I238
aI205
aa(lp313
I237
aI205
aa(lp314
I236
aI204
aa(lp315
I235
aI204
aa(lp316
I235
aI203
aa(lp317
I234
aI203
aa(lp318
I234
aI202
aa(lp319
I233
aI202
aa(lp320
I233
aI201
aa(lp321
I232
aI201
aa(lp322
I232
aI200
aa(lp323
I231
aI200
aa(lp324
I230
aI200
aa(lp325
I229
aI200
aa(lp326
I228
aI200
aa(lp327
I227
aI200
aa(lp328
I226
aI200
aa(lp329
I225
aI200
aa(lp330
I224
aI200
aa(lp331
I223
aI200
aa(lp332
I222
aI200
aa(lp333
I221
aI200
aa(lp334
I220
aI200
aa(lp335
I219
aI200
aa(lp336
I218
aI200
aa(lp337
I217
aI200
aa(lp338
I217
aI201
aa(lp339
I216
aI201
aa(lp340
I215
aI201
aa(lp341
I215
aI202
aa(lp342
I214
aI202
aa(lp343
I214
aI203
aa(lp344
I213
aI204
aa(lp345
I212
aI204
aa(lp346
I212
aI205
aa(lp347
I211
aI205
aa(lp348
I211
aI206
aa(lp349
I210
aI206
aa(lp350
I210
aI207
aa(lp351
I209
aI208
aa(lp352
I209
aI209
aa(lp353
I209
aI210
aa(lp354
I208
aI210
aa(lp355
I208
aI211
aa(lp356
I208
aI212
aa(lp357
I207
aI213
aa(lp358
I207
aI214
aa(lp359
I206
aI215
aa(lp360
I206
aI216
aa(lp361
I205
aI217
aa(lp362
I205
aI218
aa(lp363
I204
aI218
aa(lp364
I204
aI219
aa(lp365
I204
aI220
aa(lp366
I204
aI221
aa(lp367
I204
aI222
aa(lp368
I204
aI223
aa(lp369
I204
aI224
aa(lp370
I204
aI225
aa(lp371
I204
aI226
aa(lp372
I204
aI227
aa(lp373
I205
aI227
aa(lp374
I205
aI228
aa(lp375
I205
aI229
aa(lp376
I206
aI229
aa(lp377
I206
aI230
aa(lp378
I207
aI231
aa(lp379
I207
aI232
aa(lp380
I208
aI232
aa(lp381
I208
aI233
aa(lp382
I208
aI234
aa(lp383
I209
aI234
aa(lp384
I210
aI235
aa(lp385
I211
aI236
aa(lp386
I212
aI236
aa(lp387
I212
aI237
aa(lp388
I213
aI237
aa(lp389
I213
aI238
aa(lp390
I214
aI238
aa(lp391
I214
aI239
aa(lp392
I215
aI240
aa(lp393
I216
aI240
aa(lp394
I216
aI241
aa(lp395
I217
aI241
aa(lp396
I217
aI242
aa(lp397
I218
aI242
aa(lp398
I219
aI242
aa(lp399
I220
aI243
aa(lp400
I221
aI243
aa(lp401
I222
aI243
aa(lp402
I222
aI244
aa(lp403
I223
aI244
aa(lp404
I224
aI244
aa(lp405
I224
aI245
aa(lp406
I225
aI245
aa(lp407
I226
aI245
aa(lp408
I226
aI246
aa(lp409
I227
aI246
aa(lp410
I228
aI247
aa(lp411
I229
aI247
aa(lp412
I230
aI248
aa(lp413
I231
aI248
aa(lp414
I232
aI249
aa(lp415
I233
aI249
aa(lp416
I234
aI250
aa(lp417
I235
aI250
aa(lp418
I236
aI250
aa(lp419
I237
aI250
aa(lp420
I237
aI251
aa(lp421
I238
aI251
aa(lp422
I239
aI251
aa(lp423
I240
aI252
aa(lp424
I242
aI252
aa(lp425
I243
aI252
aa(lp426
I244
aI253
aa(lp427
I245
aI253
aa(lp428
I246
aI253
aa(lp429
I247
aI253
aa(lp430
I248
aI253
aa(lp431
I249
aI253
aa(lp432
I249
aI252
aa(lp433
I250
aI252
aa(lp434
I251
aI252
aa(lp435
I251
aI251
aa(lp436
I252
aI251
aa(lp437
I253
aI251
aa(lp438
I254
aI250
aa(lp439
I253
aI250
aa(lp440
I253
aI251
aa(lp441
I254
aI251
aa(lp442
I255
aI252
aa(lp443
I256
aI253
aa(lp444
I257
aI254
aa(lp445
I259
aI256
aa(lp446
I262
aI259
aa(lp447
I265
aI261
aa(lp448
I272
aI266
aa(lp449
I277
aI271
aa(lp450
I285
aI277
aa(lp451
I292
aI283
aa(lp452
I300
aI291
aa(lp453
I307
aI295
aa(lp454
I315
aI299
aa(lp455
I320
aI303
aa(lp456
I325
aI306
aa(lp457
I326
aI308
aa(lp458
I328
aI310
aa(lp459
I329
aI311
aa(lp460
I329
aI312
aa(lp461
I330
aI312
aa(lp462
I331
aI312
aa(lp463
I332
aI312
aa(lp464
I333
aI312
aa(lp465
I333
aI311
aa(lp466
I334
aI311
aa(lp467
I335
aI310
aa(lp468
I336
aI310
aa(lp469
I336
aI309
aa(lp470
I337
aI309
aa(lp471
I338
aI309
aa(lp472
I339
aI309
aa(lp473
I340
aI309
aa(lp474
I340
aI308
aa(lp475
I341
aI308
aa(lp476
I342
aI308
aa(lp477
I343
aI308
aa(lp478
I344
aI308
aa(lp479
I344
aI307
aa(lp480
I345
aI307
aa(lp481
I346
aI307
aa(lp482
I347
aI307
aa(lp483
I348
aI307
aa(lp484
I349
aI307
aa(lp485
I350
aI306
aa(lp486
I351
aI306
aa(lp487
I352
aI306
aa(lp488
I353
aI306
aa(lp489
I354
aI306
aa(lp490
I355
aI306
aa(lp491
I356
aI307
aa(lp492
I357
aI307
aa(lp493
I358
aI307
aa(lp494
I359
aI307
aa(lp495
I359
aI308
aa(lp496
I360
aI308
aa(lp497
I361
aI308
aa(lp498
I360
aI308
aa(lp499
I359
aI308
aa(lp500
I358
aI308
aa(lp501
I357
aI308
aa(lp502
I356
aI308
aa(lp503
I355
aI308
aa(lp504
I354
aI308
aa(lp505
I353
aI308
aa(lp506
I352
aI308
aa(lp507
I351
aI308
aa(lp508
I350
aI308
aa(lp509
I349
aI308
aa(lp510
I348
aI308
aa(lp511
I348
aI309
aa(lp512
I347
aI309
aa(lp513
I346
aI309
aa(lp514
I345
aI309
aa(lp515
I344
aI309
aa(lp516
I343
aI309
aa(lp517
I342
aI309
aa(lp518
I340
aI309
aa(lp519
I339
aI309
aa(lp520
I338
aI309
aa(lp521
I337
aI309
aa(lp522
I336
aI309
aa(lp523
I335
aI308
aa(lp524
I334
aI308
aa(lp525
I333
aI308
aa(lp526
I332
aI308
aa(lp527
I331
aI308
aa(lp528
I330
aI308
aa(lp529
I329
aI308
aa(lp530
I328
aI308
aa.